target datalayout = "e-m:e-p270:32:32-p271:32:32-p272:64:64-i64:64-i128:128-f80:128-n8:16:32:64-S128"
target triple = "x86_64-pc-linux-gnu"

@.str.24 = private unnamed_addr constant [14 x i8] c"mmap failed%s\00", align 1
@mmap_limit_check.limit = internal global i64 0, align 8
@.str.74 = private unnamed_addr constant [15 x i8] c"GIT_MMAP_LIMIT\00", align 1
@.str.75 = private unnamed_addr constant [38 x i8] c"attempting to mmap %lu over limit %lu\00", align 1

; Function Attrs: nounwind uwtable
define internal void @mmap_limit_check(i64 noundef %0) #0 {
  %2 = alloca i64, align 8
  store i64 %0, ptr %2, align 8, !tbaa !10
  %3 = load i64, ptr @mmap_limit_check.limit, align 8, !tbaa !10
  %4 = icmp ne i64 %3, 0
  br i1 %4, label %11, label %5

5:                                                ; preds = %1
  %6 = call i64 @git_env_ulong(ptr noundef @.str.74, i64 noundef 0)
  store i64 %6, ptr @mmap_limit_check.limit, align 8, !tbaa !10
  %7 = load i64, ptr @mmap_limit_check.limit, align 8, !tbaa !10
  %8 = icmp ne i64 %7, 0
  br i1 %8, label %10, label %9

9:                                                ; preds = %5
  store i64 -1, ptr @mmap_limit_check.limit, align 8, !tbaa !10
  br label %10

10:                                               ; preds = %9, %5
  br label %11

11:                                               ; preds = %10, %1
  %12 = load i64, ptr %2, align 8, !tbaa !10
  %13 = load i64, ptr @mmap_limit_check.limit, align 8, !tbaa !10
  %14 = icmp ugt i64 %12, %13
  br i1 %14, label %15, label %19

15:                                               ; preds = %11
  %16 = call ptr @_(ptr noundef @.str.75)
  %17 = load i64, ptr %2, align 8, !tbaa !10
  %18 = load i64, ptr @mmap_limit_check.limit, align 8, !tbaa !10
  call void (ptr, ...) @die(ptr noundef %16, i64 noundef %17, i64 noundef %18) #13
  unreachable

19:                                               ; preds = %11
  ret void
}

; Function Attrs: nounwind uwtable
define dso_local ptr @xmmap_gently(ptr noundef %0, i64 noundef %1, i32 noundef %2, i32 noundef %3, i32 noundef %4, i64 noundef %5) #0 {
  %7 = alloca ptr, align 8
  %8 = alloca i64, align 8
  %9 = alloca i32, align 4
  %10 = alloca i32, align 4
  %11 = alloca i32, align 4
  %12 = alloca i64, align 8
  %13 = alloca ptr, align 8
  store ptr %0, ptr %7, align 8, !tbaa !9
  store i64 %1, ptr %8, align 8, !tbaa !10
  store i32 %2, ptr %9, align 4, !tbaa !43
  store i32 %3, ptr %10, align 4, !tbaa !43
  store i32 %4, ptr %11, align 4, !tbaa !43
  store i64 %5, ptr %12, align 8, !tbaa !10
  call void @llvm.lifetime.start.p0(i64 8, ptr %13) #14
  %14 = load i64, ptr %8, align 8, !tbaa !10
  call void @mmap_limit_check(i64 noundef %14)
  %15 = load ptr, ptr %7, align 8, !tbaa !9
  %16 = load i64, ptr %8, align 8, !tbaa !10
  %17 = load i32, ptr %9, align 4, !tbaa !43
  %18 = load i32, ptr %10, align 4, !tbaa !43
  %19 = load i32, ptr %11, align 4, !tbaa !43
  %20 = load i64, ptr %12, align 8, !tbaa !10
  %21 = call ptr @mmap64(ptr noundef %15, i64 noundef %16, i32 noundef %17, i32 noundef %18, i32 noundef %19, i64 noundef %20) #14
  store ptr %21, ptr %13, align 8, !tbaa !9
  %22 = load ptr, ptr %13, align 8, !tbaa !9
  %23 = icmp eq ptr %22, inttoptr (i64 -1 to ptr)
  br i1 %23, label %24, label %28

24:                                               ; preds = %6
  %25 = load i64, ptr %8, align 8, !tbaa !10
  %26 = icmp ne i64 %25, 0
  br i1 %26, label %28, label %27

27:                                               ; preds = %24
  store ptr null, ptr %13, align 8, !tbaa !9
  br label %28

28:                                               ; preds = %27, %24, %6
  %29 = load ptr, ptr %13, align 8, !tbaa !9
  call void @llvm.lifetime.end.p0(i64 8, ptr %13) #14
  ret ptr %29
}

; Function Attrs: nounwind uwtable
define dso_local ptr @xmmap(ptr noundef %0, i64 noundef %1, i32 noundef %2, i32 noundef %3, i32 noundef %4, i64 noundef %5) #0 {
  %7 = alloca ptr, align 8
  %8 = alloca i64, align 8
  %9 = alloca i32, align 4
  %10 = alloca i32, align 4
  %11 = alloca i32, align 4
  %12 = alloca i64, align 8
  %13 = alloca ptr, align 8
  store ptr %0, ptr %7, align 8, !tbaa !9
  store i64 %1, ptr %8, align 8, !tbaa !10
  store i32 %2, ptr %9, align 4, !tbaa !43
  store i32 %3, ptr %10, align 4, !tbaa !43
  store i32 %4, ptr %11, align 4, !tbaa !43
  store i64 %5, ptr %12, align 8, !tbaa !10
  call void @llvm.lifetime.start.p0(i64 8, ptr %13) #14
  %14 = load ptr, ptr %7, align 8, !tbaa !9
  %15 = load i64, ptr %8, align 8, !tbaa !10
  %16 = load i32, ptr %9, align 4, !tbaa !43
  %17 = load i32, ptr %10, align 4, !tbaa !43
  %18 = load i32, ptr %11, align 4, !tbaa !43
  %19 = load i64, ptr %12, align 8, !tbaa !10
  %20 = call ptr @xmmap_gently(ptr noundef %14, i64 noundef %15, i32 noundef %16, i32 noundef %17, i32 noundef %18, i64 noundef %19)
  store ptr %20, ptr %13, align 8, !tbaa !9
  %21 = load ptr, ptr %13, align 8, !tbaa !9
  %22 = icmp eq ptr %21, inttoptr (i64 -1 to ptr)
  br i1 %22, label %23, label %26

23:                                               ; preds = %6
  %24 = call ptr @_(ptr noundef @.str.24)
  %25 = call ptr @mmap_os_err()
  call void (ptr, ...) @die_errno(ptr noundef %24, ptr noundef %25) #13
  unreachable

26:                                               ; preds = %6
  %27 = load ptr, ptr %13, align 8, !tbaa !9
  call void @llvm.lifetime.end.p0(i64 8, ptr %13) #14
  ret ptr %27
}