; Function Attrs: nounwind uwtable
define dso_local ptr @xmmap(ptr noundef %0, i64 noundef %1, i32 noundef %2, i32 noundef %3, i32 noundef %4, i64 noundef %5) local_unnamed_addr #1 {
  %7 = load i64, ptr @mmap_limit_check.limit, align 8, !tbaa !94
  %.not.i.i = icmp eq i64 %7, 0
  br i1 %.not.i.i, label %8, label %10

8:                                                ; preds = %6
  %9 = tail call i64 @git_env_ulong(ptr noundef nonnull @.str.74, i64 noundef 0) #27
  %.not2.i.i = icmp eq i64 %9, 0
  %spec.store.select.i.i = select i1 %.not2.i.i, i64 -1, i64 %9
  store i64 %spec.store.select.i.i, ptr @mmap_limit_check.limit, align 8
  br label %10

10:                                               ; preds = %8, %6
  %11 = phi i64 [ %spec.store.select.i.i, %8 ], [ %7, %6 ]
  %12 = icmp ugt i64 %1, %11
  br i1 %12, label %13, label %xmmap_gently.exit

13:                                               ; preds = %10
  %14 = tail call fastcc ptr @_(ptr noundef nonnull @.str.75)
  %15 = load i64, ptr @mmap_limit_check.limit, align 8, !tbaa !94
  tail call void (ptr, ...) @die(ptr noundef %14, i64 noundef %1, i64 noundef %15) #26
  unreachable

xmmap_gently.exit:                                ; preds = %10
  %16 = tail call ptr @mmap64(ptr noundef %0, i64 noundef %1, i32 noundef %2, i32 noundef %3, i32 noundef %4, i64 noundef %5) #27
  %17 = icmp ne ptr %16, inttoptr (i64 -1 to ptr)
  %18 = icmp ne i64 %1, 0
  %or.cond.i = or i1 %18, %17
  %spec.store.select.i = select i1 %or.cond.i, ptr %16, ptr null
  %19 = icmp eq ptr %spec.store.select.i, inttoptr (i64 -1 to ptr)
  br i1 %19, label %20, label %23

20:                                               ; preds = %xmmap_gently.exit
  %21 = tail call fastcc ptr @_(ptr noundef nonnull @.str.24)
  %22 = tail call ptr @mmap_os_err()
  tail call void (ptr, ...) @die_errno(ptr noundef %21, ptr noundef nonnull %22) #26
  unreachable

23:                                               ; preds = %xmmap_gently.exit
  ret ptr %spec.store.select.i
}